; Function Attrs: nounwind sspstrong uwtable
define internal i64 @dump_file(i32 noundef %0, ptr noundef readonly captures(none) %1, i64 %2) #0 {
  %4 = alloca %struct.pm_string_t, align 8
  %5 = alloca %struct.pm_options, align 8
  %6 = alloca i64, align 8
  call void @llvm.lifetime.start.p0(i64 24, ptr nonnull %4) #9
  call void @llvm.lifetime.start.p0(i64 104, ptr nonnull %5) #9
  call void @llvm.memset.p0.i64(ptr noundef nonnull align 8 dereferenceable(104) %5, i8 0, i64 104, i1 false)
  call void @llvm.lifetime.start.p0(i64 8, ptr nonnull %6) #9
  call fastcc void @file_options(i32 noundef %0, ptr noundef %1, ptr noundef %4, ptr noundef %5, ptr noundef %6)
  %7 = call fastcc i64 @dump_input(ptr noundef %4, ptr noundef %5)
  call void @pm_string_free(ptr noundef nonnull %4) #9
  call void @pm_options_free(ptr noundef nonnull %5) #9
  call void @llvm.lifetime.end.p0(i64 8, ptr nonnull %6) #9
  call void @llvm.lifetime.end.p0(i64 104, ptr nonnull %5) #9
  call void @llvm.lifetime.end.p0(i64 24, ptr nonnull %4) #9
  ret i64 %7
}